target datalayout = "e-m:e-p270:32:32-p271:32:32-p272:64:64-i64:64-i128:128-f80:128-n8:16:32:64-S128"
target triple = "x86_64-pc-linux-gnu"

%"struct.boost::json::array::table" = type { i32, i32 }
%"class.boost::json::value" = type { %union.anon.1 }
%union.anon.1 = type { %"class.boost::json::array" }
%"class.boost::json::array" = type { %"class.boost::json::storage_ptr", i8, ptr }
%"class.boost::json::storage_ptr" = type { i64 }

@_ZN5boost4json5valueD1Ev = unnamed_addr alias void (ptr), ptr @_ZN5boost4json5valueD2Ev

; Function Attrs: mustprogress nounwind uwtable
define linkonce_odr hidden noundef zeroext i1 @_ZNK5boost4json11storage_ptr39is_not_shared_and_deallocate_is_trivialEv(ptr noundef nonnull align 8 dereferenceable(8) %0) #2 comdat align 2 {
  %2 = alloca ptr, align 8
  store ptr %0, ptr %2, align 8, !tbaa !3
  %3 = load ptr, ptr %2, align 8
  %4 = getelementptr inbounds nuw %"class.boost::json::storage_ptr", ptr %3, i32 0, i32 0
  %5 = load i64, ptr %4, align 8, !tbaa !35
  %6 = and i64 %5, 3
  %7 = icmp eq i64 %6, 2
  ret i1 %7
}

; Function Attrs: inlinehint mustprogress nounwind uwtable
define linkonce_odr hidden void @_ZN5boost4json5array8relocateEPNS0_5valueES3_m(ptr noundef %0, ptr noundef %1, i64 noundef %2) #1 comdat align 2 {
  %4 = alloca ptr, align 8
  %5 = alloca ptr, align 8
  %6 = alloca i64, align 8
  store ptr %0, ptr %4, align 8, !tbaa !3
  store ptr %1, ptr %5, align 8, !tbaa !3
  store i64 %2, ptr %6, align 8, !tbaa !16
  %7 = load i64, ptr %6, align 8, !tbaa !16
  %8 = icmp eq i64 %7, 0
  br i1 %8, label %9, label %10

9:                                                ; preds = %3
  br label %15

10:                                               ; preds = %3
  %11 = load ptr, ptr %4, align 8, !tbaa !3
  %12 = load ptr, ptr %5, align 8, !tbaa !3
  %13 = load i64, ptr %6, align 8, !tbaa !16
  %14 = mul i64 %13, 24
  call void @llvm.memmove.p0.p0.i64(ptr align 1 %11, ptr align 1 %12, i64 %14, i1 false)
  br label %15

15:                                               ; preds = %10, %9
  ret void
}

; Function Attrs: inlinehint mustprogress nounwind uwtable
define linkonce_odr hidden void @_ZN5boost4json5array7destroyEPNS0_5valueES3_(ptr noundef nonnull align 8 dereferenceable(24) %0, ptr noundef %1, ptr noundef %2) #1 comdat align 2 {
  %4 = alloca ptr, align 8
  %5 = alloca ptr, align 8
  %6 = alloca ptr, align 8
  store ptr %0, ptr %4, align 8, !tbaa !3
  store ptr %1, ptr %5, align 8, !tbaa !3
  store ptr %2, ptr %6, align 8, !tbaa !3
  %7 = load ptr, ptr %4, align 8
  %8 = getelementptr inbounds nuw %"class.boost::json::array", ptr %7, i32 0, i32 0
  %9 = call noundef zeroext i1 @_ZNK5boost4json11storage_ptr39is_not_shared_and_deallocate_is_trivialEv(ptr noundef nonnull align 8 dereferenceable(8) %8) #10
  br i1 %9, label %10, label %11

10:                                               ; preds = %3
  br label %19

11:                                               ; preds = %3
  br label %12

12:                                               ; preds = %17, %11
  %13 = load ptr, ptr %6, align 8, !tbaa !3
  %14 = getelementptr inbounds %"class.boost::json::value", ptr %13, i32 -1
  store ptr %14, ptr %6, align 8, !tbaa !3
  %15 = load ptr, ptr %5, align 8, !tbaa !3
  %16 = icmp ne ptr %13, %15
  br i1 %16, label %17, label %19

17:                                               ; preds = %12
  %18 = load ptr, ptr %6, align 8, !tbaa !3
  call void @_ZN5boost4json5valueD1Ev(ptr noundef nonnull align 8 dereferenceable(24) %18) #10
  br label %12, !llvm.loop !32

19:                                               ; preds = %10, %12
  ret void
}

; Function Attrs: mustprogress nounwind uwtable
define linkonce_odr hidden noundef nonnull align 8 dereferenceable(24) ptr @_ZN5boost4json5array5tableixEm(ptr noundef nonnull align 8 dereferenceable(8) %0, i64 noundef %1) #2 comdat align 2 {
  %3 = alloca ptr, align 8
  %4 = alloca i64, align 8
  store ptr %0, ptr %3, align 8, !tbaa !3
  store i64 %1, ptr %4, align 8, !tbaa !16
  %5 = load ptr, ptr %3, align 8
  %6 = getelementptr inbounds %"struct.boost::json::array::table", ptr %5, i64 1
  %7 = load i64, ptr %4, align 8, !tbaa !16
  %8 = getelementptr inbounds nuw %"class.boost::json::value", ptr %6, i64 %7
  ret ptr %8
}

; Function Attrs: mustprogress nounwind uwtable
define noundef ptr @_ZN5boost4json5array5eraseEPKNS0_5valueES4_(ptr noundef nonnull align 8 dereferenceable(24) %0, ptr noundef %1, ptr noundef %2) #2 align 2 {
  %4 = alloca ptr, align 8
  %5 = alloca ptr, align 8
  %6 = alloca ptr, align 8
  %7 = alloca i64, align 8
  %8 = alloca ptr, align 8
  store ptr %0, ptr %4, align 8, !tbaa !3
  store ptr %1, ptr %5, align 8, !tbaa !3
  store ptr %2, ptr %6, align 8, !tbaa !3
  %9 = load ptr, ptr %4, align 8
  call void @llvm.lifetime.start.p0(i64 8, ptr %7) #10
  %10 = load ptr, ptr %6, align 8, !tbaa !3
  %11 = load ptr, ptr %5, align 8, !tbaa !3
  %12 = ptrtoint ptr %10 to i64
  %13 = ptrtoint ptr %11 to i64
  %14 = sub i64 %12, %13
  %15 = sdiv exact i64 %14, 24
  store i64 %15, ptr %7, align 8, !tbaa !16
  call void @llvm.lifetime.start.p0(i64 8, ptr %8) #10
  %16 = getelementptr inbounds nuw %"class.boost::json::array", ptr %9, i32 0, i32 2
  %17 = load ptr, ptr %16, align 8, !tbaa !27
  %18 = call noundef nonnull align 8 dereferenceable(24) ptr @_ZN5boost4json5array5tableixEm(ptr noundef nonnull align 8 dereferenceable(8) %17, i64 noundef 0) #10
  %19 = load ptr, ptr %5, align 8, !tbaa !3
  %20 = getelementptr inbounds nuw %"class.boost::json::array", ptr %9, i32 0, i32 2
  %21 = load ptr, ptr %20, align 8, !tbaa !27
  %22 = call noundef nonnull align 8 dereferenceable(24) ptr @_ZN5boost4json5array5tableixEm(ptr noundef nonnull align 8 dereferenceable(8) %21, i64 noundef 0) #10
  %23 = ptrtoint ptr %19 to i64
  %24 = ptrtoint ptr %22 to i64
  %25 = sub i64 %23, %24
  %26 = sdiv exact i64 %25, 24
  %27 = getelementptr inbounds %"class.boost::json::value", ptr %18, i64 %26
  store ptr %27, ptr %8, align 8, !tbaa !3
  %28 = load ptr, ptr %8, align 8, !tbaa !3
  %29 = load ptr, ptr %8, align 8, !tbaa !3
  %30 = load i64, ptr %7, align 8, !tbaa !16
  %31 = getelementptr inbounds nuw %"class.boost::json::value", ptr %29, i64 %30
  call void @_ZN5boost4json5array7destroyEPNS0_5valueES3_(ptr noundef nonnull align 8 dereferenceable(24) %9, ptr noundef %28, ptr noundef %31) #10
  %32 = load ptr, ptr %8, align 8, !tbaa !3
  %33 = load ptr, ptr %8, align 8, !tbaa !3
  %34 = load i64, ptr %7, align 8, !tbaa !16
  %35 = getelementptr inbounds nuw %"class.boost::json::value", ptr %33, i64 %34
  %36 = getelementptr inbounds nuw %"class.boost::json::array", ptr %9, i32 0, i32 2
  %37 = load ptr, ptr %36, align 8, !tbaa !27
  %38 = getelementptr inbounds nuw %"struct.boost::json::array::table", ptr %37, i32 0, i32 0
  %39 = load i32, ptr %38, align 8, !tbaa !31
  %40 = zext i32 %39 to i64
  %41 = load ptr, ptr %6, align 8, !tbaa !3
  %42 = getelementptr inbounds nuw %"class.boost::json::array", ptr %9, i32 0, i32 2
  %43 = load ptr, ptr %42, align 8, !tbaa !27
  %44 = call noundef nonnull align 8 dereferenceable(24) ptr @_ZN5boost4json5array5tableixEm(ptr noundef nonnull align 8 dereferenceable(8) %43, i64 noundef 0) #10
  %45 = ptrtoint ptr %41 to i64
  %46 = ptrtoint ptr %44 to i64
  %47 = sub i64 %45, %46
  %48 = sdiv exact i64 %47, 24
  %49 = sub nsw i64 %40, %48
  call void @_ZN5boost4json5array8relocateEPNS0_5valueES3_m(ptr noundef %32, ptr noundef %35, i64 noundef %49) #10
  %50 = getelementptr inbounds nuw %"class.boost::json::array", ptr %9, i32 0, i32 2
  %51 = load ptr, ptr %50, align 8, !tbaa !27
  %52 = getelementptr inbounds nuw %"struct.boost::json::array::table", ptr %51, i32 0, i32 0
  %53 = load i32, ptr %52, align 8, !tbaa !31
  %54 = zext i32 %53 to i64
  %55 = load i64, ptr %7, align 8, !tbaa !16
  %56 = sub i64 %54, %55
  %57 = trunc i64 %56 to i32
  %58 = getelementptr inbounds nuw %"class.boost::json::array", ptr %9, i32 0, i32 2
  %59 = load ptr, ptr %58, align 8, !tbaa !27
  %60 = getelementptr inbounds nuw %"struct.boost::json::array::table", ptr %59, i32 0, i32 0
  store i32 %57, ptr %60, align 8, !tbaa !31
  %61 = load ptr, ptr %8, align 8, !tbaa !3
  call void @llvm.lifetime.end.p0(i64 8, ptr %8) #10
  call void @llvm.lifetime.end.p0(i64 8, ptr %7) #10
  ret ptr %61
}