; Function Attrs: mustprogress nounwind uwtable
define noundef nonnull ptr @_ZN5boost4json5array5eraseEPKNS0_5valueES4_(ptr nocapture noundef nonnull readonly align 8 dereferenceable(24) %0, ptr noundef %1, ptr noundef %2) local_unnamed_addr #7 align 2 {
  %4 = ptrtoint ptr %2 to i64
  %5 = ptrtoint ptr %1 to i64
  %6 = sub i64 %4, %5
  %7 = getelementptr inbounds nuw i8, ptr %0, i64 16
  %8 = load ptr, ptr %7, align 8, !tbaa !35
  %9 = getelementptr inbounds i8, ptr %8, i64 8
  %10 = ptrtoint ptr %9 to i64
  %11 = sub i64 %5, %10
  %12 = getelementptr inbounds i8, ptr %9, i64 %11
  %13 = getelementptr inbounds nuw i8, ptr %12, i64 %6
  %14 = load i64, ptr %0, align 8, !tbaa !17
  %15 = and i64 %14, 3
  %16 = icmp eq i64 %15, 2
  %.not4.i = icmp eq ptr %13, %1
  %or.cond.i = or i1 %16, %.not4.i
  br i1 %or.cond.i, label %_ZN5boost4json5array7destroyEPNS0_5valueES3_.exit, label %.lr.ph.i

.lr.ph.i:                                         ; preds = %3, %.lr.ph.i
  %.05.i = phi ptr [ %17, %.lr.ph.i ], [ %13, %3 ]
  %17 = getelementptr inbounds i8, ptr %.05.i, i64 -24
  tail call void @_ZN5boost4json5valueD1Ev(ptr noundef nonnull align 8 dereferenceable(24) %17) #48
  %.not.i = icmp eq ptr %17, %1
  br i1 %.not.i, label %_ZN5boost4json5array7destroyEPNS0_5valueES3_.exit.loopexit, label %.lr.ph.i, !llvm.loop !43

_ZN5boost4json5array7destroyEPNS0_5valueES3_.exit.loopexit: ; preds = %.lr.ph.i
  %.pre = load ptr, ptr %7, align 8, !tbaa !35
  br label %_ZN5boost4json5array7destroyEPNS0_5valueES3_.exit

_ZN5boost4json5array7destroyEPNS0_5valueES3_.exit: ; preds = %_ZN5boost4json5array7destroyEPNS0_5valueES3_.exit.loopexit, %3
  %18 = phi ptr [ %.pre, %_ZN5boost4json5array7destroyEPNS0_5valueES3_.exit.loopexit ], [ %8, %3 ]
  %19 = load i32, ptr %18, align 8, !tbaa !40
  %20 = zext i32 %19 to i64
  %21 = getelementptr inbounds i8, ptr %18, i64 8
  %22 = ptrtoint ptr %21 to i64
  %23 = sub i64 %4, %22
  %.neg = sdiv exact i64 %23, -24
  %24 = add nsw i64 %.neg, %20
  %25 = icmp eq i64 %24, 0
  br i1 %25, label %_ZN5boost4json5array8relocateEPNS0_5valueES3_m.exit, label %26

26:                                               ; preds = %_ZN5boost4json5array7destroyEPNS0_5valueES3_.exit
  %27 = mul i64 %24, 24
  tail call void @llvm.memmove.p0.p0.i64(ptr nonnull align 1 %12, ptr nonnull align 1 %13, i64 %27, i1 false)
  %.pre13 = load ptr, ptr %7, align 8, !tbaa !35
  %.pre14 = load i32, ptr %.pre13, align 8, !tbaa !40
  br label %_ZN5boost4json5array8relocateEPNS0_5valueES3_m.exit

_ZN5boost4json5array8relocateEPNS0_5valueES3_m.exit: ; preds = %_ZN5boost4json5array7destroyEPNS0_5valueES3_.exit, %26
  %28 = phi i32 [ %19, %_ZN5boost4json5array7destroyEPNS0_5valueES3_.exit ], [ %.pre14, %26 ]
  %29 = phi ptr [ %18, %_ZN5boost4json5array7destroyEPNS0_5valueES3_.exit ], [ %.pre13, %26 ]
  %.neg12 = sdiv exact i64 %6, -24
  %30 = trunc i64 %.neg12 to i32
  %31 = add i32 %28, %30
  store i32 %31, ptr %29, align 8, !tbaa !40
  ret ptr %12
}